Certificate:
    Data:
        Version: 3 (0x2)
        Serial Number: 5 (0x5)
        Signature Algorithm: sha256WithRSAEncryption
        Issuer: C=AR, ST=BA, L=Buenos Aires, O=6669-Seguridad Redes, CN=grupo5
        Validity
            Not Before: Jun 20 16:49:39 2019 GMT
            Not After : Jun 17 16:49:39 2029 GMT
        Subject: C=AR, ST=BA, O=6669-Seguridad Redes, CN=localhost
        Subject Public Key Info:
            Public Key Algorithm: rsaEncryption
                RSA Public-Key: (1024 bit)
                Modulus:
                    00:a0:51:da:00:ff:38:aa:a9:e7:09:8c:37:e3:9a:
                    1b:c9:08:40:d4:14:e3:e1:e1:ab:19:6e:06:81:9d:
                    69:dc:86:75:18:bd:57:77:21:92:f7:58:bc:07:5f:
                    6a:c6:39:82:09:80:c2:c1:8c:f1:0d:e5:36:7a:5b:
                    21:10:1c:26:56:a0:6a:ae:12:2f:82:62:36:03:db:
                    60:08:7b:fb:25:c8:d4:c3:63:50:3e:e7:7f:c3:ba:
                    c2:10:1b:1b:db:a6:b4:89:ad:83:05:5b:20:1e:41:
                    69:8a:05:40:be:d8:fb:55:70:71:03:f9:66:db:ca:
                    2b:ca:ee:66:38:8b:e1:58:45
                Exponent: 65537 (0x10001)
        X509v3 extensions:
            X509v3 Basic Constraints: 
                CA:FALSE
            Netscape Comment: 
                OpenSSL Generated Certificate
            X509v3 Subject Key Identifier: 
                DF:4A:6F:D7:6F:DF:53:57:5B:49:AD:EB:53:79:BD:56:C5:5D:6D:84
            X509v3 Authority Key Identifier: 
                keyid:F7:78:DD:E5:CE:FA:27:41:61:C1:2F:3B:F7:64:1B:22:79:9D:A9:DD
                DirName:/C=AR/ST=BA/L=Buenos Aires/O=6669-Seguridad Redes/CN=grupo5
                serial:9A:5A:22:F8:40:ED:A2:FD

    Signature Algorithm: sha256WithRSAEncryption
         2d:b0:73:f9:85:56:20:05:5c:29:d4:cc:ae:6a:6c:58:66:0a:
         21:1e:4b:81:48:83:a9:f4:b8:61:f8:0b:99:e5:b7:aa:91:c9:
         8d:52:75:4f:d4:67:58:05:99:1e:f1:b8:82:c7:2a:e9:48:3a:
         1a:e7:92:98:cf:93:2f:0e:b8:9a:55:40:01:97:fc:93:ba:73:
         b7:23:7d:bd:4d:05:e9:9f:00:1b:38:1b:c6:07:d1:aa:65:79:
         6f:5f:6d:de:7b:30:62:c3:80:bd:d2:01:58:4d:30:7a:12:5a:
         a2:5b:ba:7b:80:a2:03:45:36:3d:cc:5b:87:66:0e:7c:6d:11:
         cc:03
-----BEGIN CERTIFICATE-----
MIIDFjCCAn+gAwIBAgIBBTANBgkqhkiG9w0BAQsFADBhMQswCQYDVQQGEwJBUjEL
MAkGA1UECBMCQkExFTATBgNVBAcTDEJ1ZW5vcyBBaXJlczEdMBsGA1UEChMUNjY2
OS1TZWd1cmlkYWQgUmVkZXMxDzANBgNVBAMTBmdydXBvNTAeFw0xOTA2MjAxNjQ5
MzlaFw0yOTA2MTcxNjQ5MzlaME0xCzAJBgNVBAYTAkFSMQswCQYDVQQIEwJCQTEd
MBsGA1UEChMUNjY2OS1TZWd1cmlkYWQgUmVkZXMxEjAQBgNVBAMTCWxvY2FsaG9z
dDCBnzANBgkqhkiG9w0BAQEFAAOBjQAwgYkCgYEAoFHaAP84qqnnCYw345obyQhA
1BTj4eGrGW4GgZ1p3IZ1GL1XdyGS91i8B19qxjmCCYDCwYzxDeU2elshEBwmVqBq
rhIvgmI2A9tgCHv7JcjUw2NQPud/w7rCEBsb26a0ia2DBVsgHkFpigVAvtj7VXBx
A/lm28oryu5mOIvhWEUCAwEAAaOB8TCB7jAJBgNVHRMEAjAAMCwGCWCGSAGG+EIB
DQQfFh1PcGVuU1NMIEdlbmVyYXRlZCBDZXJ0aWZpY2F0ZTAdBgNVHQ4EFgQU30pv
12/fU1dbSa3rU3m9VsVdbYQwgZMGA1UdIwSBizCBiIAU93jd5c76J0FhwS8792Qb
Inmdqd2hZaRjMGExCzAJBgNVBAYTAkFSMQswCQYDVQQIEwJCQTEVMBMGA1UEBxMM
QnVlbm9zIEFpcmVzMR0wGwYDVQQKExQ2NjY5LVNlZ3VyaWRhZCBSZWRlczEPMA0G
A1UEAxMGZ3J1cG81ggkAmloi+EDtov0wDQYJKoZIhvcNAQELBQADgYEALbBz+YVW
IAVcKdTMrmpsWGYKIR5LgUiDqfS4YfgLmeW3qpHJjVJ1T9RnWAWZHvG4gscq6Ug6
GueSmM+TLw64mlVAAZf8k7pztyN9vU0F6Z8AGzgbxgfRqmV5b19t3nswYsOAvdIB
WE0wehJaolu6e4CiA0U2Pcxbh2YOfG0RzAM=
-----END CERTIFICATE-----
